target datalayout = "e-m:e-p270:32:32-p271:32:32-p272:64:64-i64:64-i128:128-f80:128-n8:16:32:64-S128"
target triple = "x86_64-pc-linux-gnu"

%struct.PROV_ECDSA_CTX = type { ptr, ptr, ptr, i32, i8, [256 x i8], i64, [50 x i8], ptr, ptr, i64, ptr, i64, ptr, ptr, i32 }

; Function Attrs: nounwind uwtable
define internal i32 @ecdsa_sign_message_final(ptr noundef %0, ptr noundef %1, ptr noundef %2, i64 noundef %3) #0 {
  %5 = alloca i32, align 4
  %6 = alloca ptr, align 8
  %7 = alloca ptr, align 8
  %8 = alloca ptr, align 8
  %9 = alloca i64, align 8
  %10 = alloca ptr, align 8
  %11 = alloca [64 x i8], align 16
  %12 = alloca i32, align 4
  %13 = alloca i32, align 4
  store ptr %0, ptr %6, align 8, !tbaa !3
  store ptr %1, ptr %7, align 8, !tbaa !7
  store ptr %2, ptr %8, align 8, !tbaa !21
  store i64 %3, ptr %9, align 8, !tbaa !23
  call void @llvm.lifetime.start.p0(i64 8, ptr %10) #7
  %14 = load ptr, ptr %6, align 8, !tbaa !3
  store ptr %14, ptr %10, align 8, !tbaa !3
  call void @llvm.lifetime.start.p0(i64 64, ptr %11) #7
  call void @llvm.lifetime.start.p0(i64 4, ptr %12) #7
  store i32 0, ptr %12, align 4, !tbaa !26
  %15 = call i32 @ossl_prov_is_running()
  %16 = icmp ne i32 %15, 0
  br i1 %16, label %17, label %20

17:                                               ; preds = %4
  %18 = load ptr, ptr %10, align 8, !tbaa !3
  %19 = icmp eq ptr %18, null
  br i1 %19, label %20, label %21

20:                                               ; preds = %17, %4
  store i32 0, ptr %5, align 4
  store i32 1, ptr %13, align 4
  br label %47

21:                                               ; preds = %17
  %22 = load ptr, ptr %10, align 8, !tbaa !3
  %23 = getelementptr inbounds nuw %struct.PROV_ECDSA_CTX, ptr %22, i32 0, i32 9
  %24 = load ptr, ptr %23, align 8, !tbaa !25
  %25 = icmp eq ptr %24, null
  br i1 %25, label %26, label %27

26:                                               ; preds = %21
  store i32 0, ptr %5, align 4
  store i32 1, ptr %13, align 4
  br label %47

27:                                               ; preds = %21
  %28 = load ptr, ptr %7, align 8, !tbaa !7
  %29 = icmp ne ptr %28, null
  br i1 %29, label %30, label %38

30:                                               ; preds = %27
  %31 = load ptr, ptr %10, align 8, !tbaa !3
  %32 = getelementptr inbounds nuw %struct.PROV_ECDSA_CTX, ptr %31, i32 0, i32 9
  %33 = load ptr, ptr %32, align 8, !tbaa !25
  %34 = getelementptr inbounds [64 x i8], ptr %11, i64 0, i64 0
  %35 = call i32 @EVP_DigestFinal_ex(ptr noundef %33, ptr noundef %34, ptr noundef %12)
  %36 = icmp ne i32 %35, 0
  br i1 %36, label %38, label %37

37:                                               ; preds = %30
  store i32 0, ptr %5, align 4
  store i32 1, ptr %13, align 4
  br label %47

38:                                               ; preds = %30, %27
  %39 = load ptr, ptr %6, align 8, !tbaa !3
  %40 = load ptr, ptr %7, align 8, !tbaa !7
  %41 = load ptr, ptr %8, align 8, !tbaa !21
  %42 = load i64, ptr %9, align 8, !tbaa !23
  %43 = getelementptr inbounds [64 x i8], ptr %11, i64 0, i64 0
  %44 = load i32, ptr %12, align 4, !tbaa !26
  %45 = zext i32 %44 to i64
  %46 = call i32 @ecdsa_sign_directly(ptr noundef %39, ptr noundef %40, ptr noundef %41, i64 noundef %42, ptr noundef %43, i64 noundef %45)
  store i32 %46, ptr %5, align 4
  store i32 1, ptr %13, align 4
  br label %47

47:                                               ; preds = %38, %37, %26, %20
  call void @llvm.lifetime.end.p0(i64 4, ptr %12) #7
  call void @llvm.lifetime.end.p0(i64 64, ptr %11) #7
  call void @llvm.lifetime.end.p0(i64 8, ptr %10) #7
  %48 = load i32, ptr %5, align 4
  ret i32 %48
}