; Function Attrs: nounwind uwtable
define internal range(i32 0, 2) i32 @ecdsa_sign_message_final(ptr noundef %0, ptr noundef %1, ptr noundef writeonly captures(none) %2, i64 noundef %3) #0 {
  %5 = alloca [64 x i8], align 16
  %6 = alloca i32, align 4
  call void @llvm.lifetime.start.p0(i64 64, ptr nonnull %5) #8
  call void @llvm.lifetime.start.p0(i64 4, ptr nonnull %6) #8
  store i32 0, ptr %6, align 4, !tbaa !21
  %7 = tail call i32 @ossl_prov_is_running() #8
  %8 = icmp eq i32 %7, 0
  %9 = icmp eq ptr %0, null
  %or.cond = or i1 %9, %8
  br i1 %or.cond, label %ecdsa_sign_directly.exit, label %10

10:                                               ; preds = %4
  %11 = getelementptr inbounds nuw i8, ptr %0, i64 360
  %12 = load ptr, ptr %11, align 8, !tbaa !18
  %13 = icmp eq ptr %12, null
  br i1 %13, label %ecdsa_sign_directly.exit, label %14

14:                                               ; preds = %10
  %.not = icmp eq ptr %1, null
  br i1 %.not, label %.split, label %21

.split:                                           ; preds = %14
  %15 = getelementptr inbounds nuw i8, ptr %0, i64 16
  %16 = load ptr, ptr %15, align 8, !tbaa !19
  %17 = tail call i32 @ECDSA_size(ptr noundef %16) #8
  %18 = tail call i32 @ossl_prov_is_running() #8
  %.not.i = icmp eq i32 %18, 0
  br i1 %.not.i, label %ecdsa_sign_directly.exit, label %19

19:                                               ; preds = %.split
  %20 = sext i32 %17 to i64
  store i64 %20, ptr %2, align 8, !tbaa !20
  br label %ecdsa_sign_directly.exit

21:                                               ; preds = %14
  %22 = call i32 @EVP_DigestFinal_ex(ptr noundef nonnull %12, ptr noundef nonnull %5, ptr noundef nonnull %6) #8
  %.not14 = icmp eq i32 %22, 0
  br i1 %.not14, label %ecdsa_sign_directly.exit, label %.split10

.split10:                                         ; preds = %21
  %23 = load i32, ptr %6, align 4, !tbaa !21
  %24 = zext i32 %23 to i64
  %25 = call fastcc i32 @ecdsa_sign_directly(ptr noundef nonnull %0, ptr noundef nonnull %1, ptr noundef %2, i64 noundef %3, ptr noundef nonnull %5, i64 noundef %24)
  br label %ecdsa_sign_directly.exit

ecdsa_sign_directly.exit:                         ; preds = %19, %.split, %.split10, %21, %10, %4
  %.0 = phi i32 [ 0, %4 ], [ 0, %10 ], [ 0, %21 ], [ %25, %.split10 ], [ 0, %.split ], [ 1, %19 ]
  call void @llvm.lifetime.end.p0(i64 4, ptr nonnull %6) #8
  call void @llvm.lifetime.end.p0(i64 64, ptr nonnull %5) #8
  ret i32 %.0
}